target datalayout = "e-m:e-p270:32:32-p271:32:32-p272:64:64-i64:64-i128:128-f80:128-n8:16:32:64-S128"
target triple = "x86_64-pc-linux-gnu"

%struct.lua_State = type { i8, i8, i8, i8, i8, i8, i8, ptr, ptr, ptr, ptr, ptr, ptr, ptr, ptr, i32, i32, i16, i16, i32, ptr, ptr, ptr, ptr, ptr }
%struct.CallInfo = type { ptr, ptr, ptr, ptr, i32, i32 }
%struct.Proto = type { i8, i8, i8, i8, i8, i8, i8, i8, ptr, ptr, ptr, ptr, ptr, i64, ptr, ptr, ptr, ptr, ptr, ptr, ptr, ptr, ptr, ptr, i32, i32, i32, i32, i32, i32, i32, i32, i32, i32 }
%struct.lua_TValue = type { %union.Value, [1 x i32], i32 }
%union.Value = type { ptr }
%struct.Closure = type { i8, i8, i8, i8, i8, i8, i8, ptr, ptr, %union.anon.0 }
%union.anon.0 = type { %struct.anon }
%struct.anon = type { ptr, ptr, ptr, [1 x %struct.lua_TValue] }
%struct.anon.1 = type { ptr, [1 x %struct.lua_TValue] }

; Function Attrs: mustprogress nounwind uwtable
define internal noundef ptr @_ZL11getluaprotoP8CallInfo(ptr noundef %0) #2 {
  %2 = alloca ptr, align 8
  store ptr %0, ptr %2, align 8, !tbaa !23
  %3 = load ptr, ptr %2, align 8, !tbaa !23
  %4 = getelementptr inbounds nuw %struct.CallInfo, ptr %3, i32 0, i32 1
  %5 = load ptr, ptr %4, align 8, !tbaa !40
  %6 = getelementptr inbounds nuw %struct.lua_TValue, ptr %5, i32 0, i32 2
  %7 = load i32, ptr %6, align 4, !tbaa !41
  %8 = icmp eq i32 %7, 7
  br i1 %8, label %9, label %27

9:                                                ; preds = %1
  %10 = load ptr, ptr %2, align 8, !tbaa !23
  %11 = getelementptr inbounds nuw %struct.CallInfo, ptr %10, i32 0, i32 1
  %12 = load ptr, ptr %11, align 8, !tbaa !40
  %13 = getelementptr inbounds nuw %struct.lua_TValue, ptr %12, i32 0, i32 0
  %14 = load ptr, ptr %13, align 8, !tbaa !37
  %15 = getelementptr inbounds nuw %struct.Closure, ptr %14, i32 0, i32 3
  %16 = load i8, ptr %15, align 1, !tbaa !43
  %17 = icmp ne i8 %16, 0
  br i1 %17, label %27, label %18

18:                                               ; preds = %9
  %19 = load ptr, ptr %2, align 8, !tbaa !23
  %20 = getelementptr inbounds nuw %struct.CallInfo, ptr %19, i32 0, i32 1
  %21 = load ptr, ptr %20, align 8, !tbaa !40
  %22 = getelementptr inbounds nuw %struct.lua_TValue, ptr %21, i32 0, i32 0
  %23 = load ptr, ptr %22, align 8, !tbaa !37
  %24 = getelementptr inbounds nuw %struct.Closure, ptr %23, i32 0, i32 9
  %25 = getelementptr inbounds nuw %struct.anon.1, ptr %24, i32 0, i32 0
  %26 = load ptr, ptr %25, align 8, !tbaa !37
  br label %28

27:                                               ; preds = %9, %1
  br label %28

28:                                               ; preds = %27, %18
  %29 = phi ptr [ %26, %18 ], [ null, %27 ]
  ret ptr %29
}

; Function Attrs: mustprogress uwtable
define hidden noundef i32 @_Z14luaG_hasnativeP9lua_Statei(ptr noundef %0, i32 noundef %1) #0 {
  %3 = alloca i32, align 4
  %4 = alloca ptr, align 8
  %5 = alloca i32, align 4
  %6 = alloca ptr, align 8
  %7 = alloca ptr, align 8
  %8 = alloca i32, align 4
  store ptr %0, ptr %4, align 8, !tbaa !4
  store i32 %1, ptr %5, align 4, !tbaa !9
  %9 = load i32, ptr %5, align 4, !tbaa !9
  %10 = load ptr, ptr %4, align 8, !tbaa !4
  %11 = getelementptr inbounds nuw %struct.lua_State, ptr %10, i32 0, i32 10
  %12 = load ptr, ptr %11, align 8, !tbaa !11
  %13 = load ptr, ptr %4, align 8, !tbaa !4
  %14 = getelementptr inbounds nuw %struct.lua_State, ptr %13, i32 0, i32 14
  %15 = load ptr, ptr %14, align 8, !tbaa !22
  %16 = ptrtoint ptr %12 to i64
  %17 = ptrtoint ptr %15 to i64
  %18 = sub i64 %16, %17
  %19 = sdiv exact i64 %18, 40
  %20 = trunc i64 %19 to i32
  %21 = icmp uge i32 %9, %20
  br i1 %21, label %22, label %23

22:                                               ; preds = %2
  store i32 0, ptr %3, align 4
  br label %43

23:                                               ; preds = %2
  call void @llvm.lifetime.start.p0(i64 8, ptr %6) #11
  %24 = load ptr, ptr %4, align 8, !tbaa !4
  %25 = getelementptr inbounds nuw %struct.lua_State, ptr %24, i32 0, i32 10
  %26 = load ptr, ptr %25, align 8, !tbaa !11
  %27 = load i32, ptr %5, align 4, !tbaa !9
  %28 = sext i32 %27 to i64
  %29 = sub i64 0, %28
  %30 = getelementptr inbounds %struct.CallInfo, ptr %26, i64 %29
  store ptr %30, ptr %6, align 8, !tbaa !23
  call void @llvm.lifetime.start.p0(i64 8, ptr %7) #11
  %31 = load ptr, ptr %6, align 8, !tbaa !23
  %32 = call noundef ptr @_ZL11getluaprotoP8CallInfo(ptr noundef %31)
  store ptr %32, ptr %7, align 8, !tbaa !27
  %33 = load ptr, ptr %7, align 8, !tbaa !27
  %34 = icmp eq ptr %33, null
  br i1 %34, label %35, label %36

35:                                               ; preds = %23
  store i32 0, ptr %3, align 4
  store i32 1, ptr %8, align 4
  br label %42

36:                                               ; preds = %23
  %37 = load ptr, ptr %7, align 8, !tbaa !27
  %38 = getelementptr inbounds nuw %struct.Proto, ptr %37, i32 0, i32 12
  %39 = load ptr, ptr %38, align 8, !tbaa !95
  %40 = icmp ne ptr %39, null
  %41 = zext i1 %40 to i32
  store i32 %41, ptr %3, align 4
  store i32 1, ptr %8, align 4
  br label %42

42:                                               ; preds = %36, %35
  call void @llvm.lifetime.end.p0(i64 8, ptr %7) #11
  call void @llvm.lifetime.end.p0(i64 8, ptr %6) #11
  br label %43

43:                                               ; preds = %42, %22
  %44 = load i32, ptr %3, align 4
  ret i32 %44
}