; Function Attrs: mustprogress nofree norecurse nosync nounwind willreturn memory(read, inaccessiblemem: none) uwtable
define hidden noundef range(i32 0, 2) i32 @_Z14luaG_hasnativeP9lua_Statei(ptr noundef readonly captures(none) %0, i32 noundef %1) local_unnamed_addr #9 {
  %3 = getelementptr inbounds nuw i8, ptr %0, i64 32
  %4 = load ptr, ptr %3, align 8, !tbaa !4
  %5 = getelementptr inbounds nuw i8, ptr %0, i64 64
  %6 = load ptr, ptr %5, align 8, !tbaa !19
  %7 = ptrtoint ptr %4 to i64
  %8 = ptrtoint ptr %6 to i64
  %9 = sub i64 %7, %8
  %10 = sdiv exact i64 %9, 40
  %11 = trunc i64 %10 to i32
  %.not = icmp ult i32 %1, %11
  br i1 %.not, label %12, label %_ZL11getluaprotoP8CallInfo.exit.thread

12:                                               ; preds = %2
  %13 = sext i32 %1 to i64
  %14 = sub nsw i64 0, %13
  %15 = getelementptr %struct.CallInfo, ptr %4, i64 %14, i32 1
  %.val = load ptr, ptr %15, align 8, !tbaa !23
  %16 = getelementptr inbounds nuw i8, ptr %.val, i64 12
  %17 = load i32, ptr %16, align 4, !tbaa !24
  %18 = icmp eq i32 %17, 7
  br i1 %18, label %19, label %_ZL11getluaprotoP8CallInfo.exit.thread

19:                                               ; preds = %12
  %20 = load ptr, ptr %.val, align 8, !tbaa !26
  %21 = getelementptr inbounds nuw i8, ptr %20, i64 3
  %22 = load i8, ptr %21, align 1, !tbaa !27
  %.not.i = icmp eq i8 %22, 0
  br i1 %.not.i, label %_ZL11getluaprotoP8CallInfo.exit, label %_ZL11getluaprotoP8CallInfo.exit.thread

_ZL11getluaprotoP8CallInfo.exit:                  ; preds = %19
  %23 = getelementptr inbounds nuw i8, ptr %20, i64 24
  %24 = load ptr, ptr %23, align 8, !tbaa !26
  %25 = icmp eq ptr %24, null
  br i1 %25, label %_ZL11getluaprotoP8CallInfo.exit.thread, label %26

26:                                               ; preds = %_ZL11getluaprotoP8CallInfo.exit
  %27 = getelementptr inbounds nuw i8, ptr %24, i64 40
  %28 = load ptr, ptr %27, align 8, !tbaa !83
  %29 = icmp ne ptr %28, null
  %30 = zext i1 %29 to i32
  br label %_ZL11getluaprotoP8CallInfo.exit.thread

_ZL11getluaprotoP8CallInfo.exit.thread:           ; preds = %12, %19, %26, %_ZL11getluaprotoP8CallInfo.exit, %2
  %.0 = phi i32 [ 0, %2 ], [ %30, %26 ], [ 0, %_ZL11getluaprotoP8CallInfo.exit ], [ 0, %19 ], [ 0, %12 ]
  ret i32 %.0
}